; Function Attrs: mustprogress nounwind uwtable
define dso_local void @_ZN4node9inspector13WorkerManager20RemoveAttachDelegateEi(ptr noundef nonnull align 8 dereferenceable(204) %this, i32 noundef %id) local_unnamed_addr #0 align 2 {
entry:
  %id.addr = alloca i32, align 4
  store i32 %id, ptr %id.addr, align 4
  %delegates_ = getelementptr inbounds i8, ptr %this, i64 88
  %call.i.i = call noundef i64 @_ZNSt10_HashtableIiSt4pairIKiSt10unique_ptrIN4node9inspector14WorkerDelegateESt14default_deleteIS5_EEESaIS9_ENSt8__detail10_Select1stESt8equal_toIiESt4hashIiENSB_18_Mod_range_hashingENSB_20_Default_ranged_hashENSB_20_Prime_rehash_policyENSB_17_Hashtable_traitsILb0ELb0ELb1EEEE8_M_eraseESt17integral_constantIbLb1EERS1_(ptr noundef nonnull align 8 dereferenceable(56) %delegates_, ptr noundef nonnull align 4 dereferenceable(4) %id.addr)
  %delegates_waiting_on_start_ = getelementptr inbounds i8, ptr %this, i64 144
  %call.i.i1 = call noundef i64 @_ZNSt10_HashtableIiiSaIiENSt8__detail9_IdentityESt8equal_toIiESt4hashIiENS1_18_Mod_range_hashingENS1_20_Default_ranged_hashENS1_20_Prime_rehash_policyENS1_17_Hashtable_traitsILb0ELb1ELb1EEEE8_M_eraseESt17integral_constantIbLb1EERKi(ptr noundef nonnull align 8 dereferenceable(56) %delegates_waiting_on_start_, ptr noundef nonnull align 4 dereferenceable(4) %id.addr)
  ret void
}